target datalayout = "e-m:e-p270:32:32-p271:32:32-p272:64:64-i64:64-i128:128-f80:128-n8:16:32:64-S128"
target triple = "x86_64-pc-linux-gnu"

%struct._zend_refcounted_h = type { i32, %union.anon.4 }
%union.anon.4 = type { i32 }
%struct.zend_type = type { ptr, i32 }

; Function Attrs: nounwind uwtable
define internal i32 @zend_convert_type_declaration_mask(i32 noundef %0) #0 {
  %2 = alloca i32, align 4
  %3 = alloca i32, align 4
  store i32 %0, ptr %2, align 4
  %4 = load i32, ptr %2, align 4
  %5 = and i32 %4, 1022
  store i32 %5, ptr %3, align 4
  %6 = load i32, ptr %2, align 4
  %7 = and i32 %6, 16384
  %8 = icmp ne i32 %7, 0
  br i1 %8, label %9, label %12

9:                                                ; preds = %1
  %10 = load i32, ptr %3, align 4
  %11 = or i32 %10, 2
  store i32 %11, ptr %3, align 4
  br label %12

12:                                               ; preds = %9, %1
  %13 = load i32, ptr %2, align 4
  %14 = and i32 %13, 4096
  %15 = icmp ne i32 %14, 0
  br i1 %15, label %16, label %19

16:                                               ; preds = %12
  %17 = load i32, ptr %3, align 4
  %18 = or i32 %17, 553646528
  store i32 %18, ptr %3, align 4
  br label %19

19:                                               ; preds = %16, %12
  %20 = load i32, ptr %2, align 4
  %21 = and i32 %20, 32768
  %22 = icmp ne i32 %21, 0
  br i1 %22, label %23, label %26

23:                                               ; preds = %19
  %24 = load i32, ptr %3, align 4
  %25 = or i32 %24, 256
  store i32 %25, ptr %3, align 4
  br label %26

26:                                               ; preds = %23, %19
  %27 = load i32, ptr %2, align 4
  %28 = and i32 %27, 128
  %29 = icmp ne i32 %28, 0
  br i1 %29, label %30, label %33

30:                                               ; preds = %26
  %31 = load i32, ptr %3, align 4
  %32 = or i32 %31, 553646080
  store i32 %32, ptr %3, align 4
  br label %33

33:                                               ; preds = %30, %26
  %34 = load i32, ptr %3, align 4
  ret i32 %34
}

; Function Attrs: nounwind uwtable
define internal i32 @zend_convert_type(ptr noundef %0, ptr %1, i32 %2, ptr noundef %3) #0 {
  %5 = alloca ptr, align 8
  %6 = alloca i32, align 4
  %7 = alloca ptr, align 8
  %8 = alloca i8, align 1
  %9 = alloca ptr, align 8
  %10 = alloca i32, align 4
  %11 = alloca %struct.zend_type, align 8
  %12 = alloca ptr, align 8
  %13 = alloca ptr, align 8
  %14 = alloca i32, align 4
  %15 = alloca ptr, align 8
  %16 = getelementptr inbounds { ptr, i32 }, ptr %11, i32 0, i32 0
  store ptr %1, ptr %16, align 8
  %17 = getelementptr inbounds { ptr, i32 }, ptr %11, i32 0, i32 1
  store i32 %2, ptr %17, align 8
  store ptr %0, ptr %12, align 8
  store ptr %3, ptr %13, align 8
  %18 = load ptr, ptr %13, align 8
  %19 = icmp ne ptr %18, null
  br i1 %19, label %20, label %22

20:                                               ; preds = %4
  %21 = load ptr, ptr %13, align 8
  store ptr null, ptr %21, align 8
  br label %22

22:                                               ; preds = %20, %4
  %23 = getelementptr inbounds %struct.zend_type, ptr %11, i32 0, i32 1
  %24 = load i32, ptr %23, align 8
  %25 = and i32 %24, 33554431
  %26 = icmp ne i32 %25, 0
  br i1 %26, label %28, label %27

27:                                               ; preds = %22
  store i32 -520094722, ptr %10, align 4
  br label %94

28:                                               ; preds = %22
  %29 = getelementptr inbounds %struct.zend_type, ptr %11, i32 0, i32 1
  %30 = load i32, ptr %29, align 8
  %31 = and i32 %30, 262143
  %32 = call i32 @zend_convert_type_declaration_mask(i32 noundef %31)
  store i32 %32, ptr %14, align 4
  %33 = getelementptr inbounds %struct.zend_type, ptr %11, i32 0, i32 1
  %34 = load i32, ptr %33, align 8
  %35 = and i32 %34, 29360128
  %36 = icmp ne i32 %35, 0
  br i1 %36, label %37, label %85

37:                                               ; preds = %28
  %38 = load i32, ptr %14, align 4
  %39 = or i32 %38, 256
  store i32 %39, ptr %14, align 4
  %40 = load ptr, ptr %13, align 8
  %41 = icmp ne ptr %40, null
  br i1 %41, label %42, label %84

42:                                               ; preds = %37
  %43 = getelementptr inbounds %struct.zend_type, ptr %11, i32 0, i32 1
  %44 = load i32, ptr %43, align 8
  %45 = and i32 %44, 16777216
  %46 = icmp ne i32 %45, 0
  br i1 %46, label %47, label %83

47:                                               ; preds = %42
  %48 = getelementptr inbounds %struct.zend_type, ptr %11, i32 0, i32 0
  %49 = load ptr, ptr %48, align 8
  store ptr %49, ptr %9, align 8
  %50 = load ptr, ptr %9, align 8
  %51 = call ptr @zend_string_tolower_ex(ptr noundef %50, i1 noundef zeroext false) #11
  store ptr %51, ptr %15, align 8
  %52 = load ptr, ptr %12, align 8
  %53 = load ptr, ptr %15, align 8
  %54 = call ptr @zend_optimizer_get_class_entry(ptr noundef %52, ptr noundef null, ptr noundef %53)
  %55 = load ptr, ptr %13, align 8
  store ptr %54, ptr %55, align 8
  %56 = load ptr, ptr %15, align 8
  store ptr %56, ptr %7, align 8
  store i8 0, ptr %8, align 1
  %57 = load ptr, ptr %7, align 8
  %58 = getelementptr inbounds %struct._zend_refcounted_h, ptr %57, i32 0, i32 1
  %59 = load i32, ptr %58, align 4
  store i32 %59, ptr %6, align 4
  %60 = load i32, ptr %6, align 4
  %61 = and i32 %60, 1008
  %62 = and i32 %61, 64
  %63 = icmp ne i32 %62, 0
  br i1 %63, label %82, label %64

64:                                               ; preds = %47
  %65 = load ptr, ptr %7, align 8
  store ptr %65, ptr %5, align 8
  %66 = load ptr, ptr %5, align 8
  %67 = load i32, ptr %66, align 4
  %68 = icmp ugt i32 %67, 0
  call void @llvm.assume(i1 %68)
  %69 = load ptr, ptr %5, align 8
  %70 = load i32, ptr %69, align 4
  %71 = add i32 %70, -1
  store i32 %71, ptr %69, align 4
  %72 = icmp eq i32 %71, 0
  br i1 %72, label %73, label %81

73:                                               ; preds = %64
  %74 = load i8, ptr %8, align 1
  %75 = trunc i8 %74 to i1
  br i1 %75, label %76, label %78

76:                                               ; preds = %73
  %77 = load ptr, ptr %7, align 8
  call void @free(ptr noundef %77) #11
  br label %80

78:                                               ; preds = %73
  %79 = load ptr, ptr %7, align 8
  call void @_efree(ptr noundef %79) #11
  br label %80

80:                                               ; preds = %78, %76
  br label %81

81:                                               ; preds = %80, %64
  br label %82

82:                                               ; preds = %81, %47
  br label %83

83:                                               ; preds = %82, %42
  br label %84

84:                                               ; preds = %83, %37
  br label %85

85:                                               ; preds = %84, %28
  %86 = load i32, ptr %14, align 4
  %87 = and i32 %86, 960
  %88 = icmp ne i32 %87, 0
  br i1 %88, label %89, label %92

89:                                               ; preds = %85
  %90 = load i32, ptr %14, align 4
  %91 = or i32 %90, -1073741824
  store i32 %91, ptr %14, align 4
  br label %92

92:                                               ; preds = %89, %85
  %93 = load i32, ptr %14, align 4
  store i32 %93, ptr %10, align 4
  br label %94

94:                                               ; preds = %92, %27
  %95 = load i32, ptr %10, align 4
  ret i32 %95
}