; Function Attrs: nounwind uwtable
define internal fastcc i32 @zend_convert_type(ptr noundef %0, ptr %1, i32 %2, ptr noundef writeonly %3) unnamed_addr #0 {
  %.not = icmp eq ptr %3, null
  br i1 %.not, label %6, label %5

5:                                                ; preds = %4
  store ptr null, ptr %3, align 8
  br label %6

6:                                                ; preds = %5, %4
  %7 = and i32 %2, 33554431
  %.not26 = icmp eq i32 %7, 0
  br i1 %.not26, label %37, label %8

8:                                                ; preds = %6
  %9 = and i32 %2, 1022
  %10 = lshr i32 %2, 13
  %11 = and i32 %10, 2
  %spec.select.i = or i32 %11, %9
  %12 = and i32 %2, 4096
  %.not10.i = icmp eq i32 %12, 0
  %13 = or i32 %spec.select.i, 553646528
  %.1.i = select i1 %.not10.i, i32 %spec.select.i, i32 %13
  %14 = lshr i32 %2, 7
  %15 = and i32 %14, 256
  %.2.i = or i32 %.1.i, %15
  %16 = and i32 %2, 128
  %.not12.i = icmp eq i32 %16, 0
  %17 = or i32 %.2.i, 553646080
  %.3.i = select i1 %.not12.i, i32 %.2.i, i32 %17
  %18 = and i32 %2, 29360128
  %.not27 = icmp eq i32 %18, 0
  br i1 %.not27, label %34, label %19

19:                                               ; preds = %8
  %20 = or i32 %.3.i, 256
  %21 = and i32 %2, 16777216
  %.not28 = icmp eq i32 %21, 0
  %or.cond = select i1 %.not, i1 true, i1 %.not28
  br i1 %or.cond, label %34, label %22

22:                                               ; preds = %19
  %23 = tail call ptr @zend_string_tolower_ex(ptr noundef %1, i1 noundef zeroext false) #19
  %24 = tail call ptr @zend_optimizer_get_class_entry(ptr noundef %0, ptr noundef null, ptr noundef %23) #19
  store ptr %24, ptr %3, align 8
  %25 = getelementptr inbounds i8, ptr %23, i64 4
  %26 = load i32, ptr %25, align 4
  %27 = and i32 %26, 64
  %.not29 = icmp eq i32 %27, 0
  br i1 %.not29, label %28, label %34

28:                                               ; preds = %22
  %29 = load i32, ptr %23, align 4
  %30 = icmp ne i32 %29, 0
  tail call void @llvm.assume(i1 %30)
  %31 = add i32 %29, -1
  store i32 %31, ptr %23, align 4
  %32 = icmp eq i32 %31, 0
  br i1 %32, label %33, label %34

33:                                               ; preds = %28
  tail call void @_efree(ptr noundef nonnull %23) #19
  br label %34

34:                                               ; preds = %19, %22, %33, %28, %8
  %.023 = phi i32 [ %20, %22 ], [ %20, %33 ], [ %20, %28 ], [ %20, %19 ], [ %.3.i, %8 ]
  %35 = and i32 %.023, 960
  %.not30 = icmp eq i32 %35, 0
  %36 = or i32 %.023, -1073741824
  %spec.select = select i1 %.not30, i32 %.023, i32 %36
  br label %37

37:                                               ; preds = %6, %34
  %.0 = phi i32 [ %spec.select, %34 ], [ -520094722, %6 ]
  ret i32 %.0
}